; Function Attrs: mustprogress uwtable
define noundef zeroext i8 @_Z20unicode_utf8_to_byteRKNSt7__cxx1112basic_stringIcSt11char_traitsIcESaIcEEE(ptr noundef nonnull align 8 dereferenceable(32) %0) local_unnamed_addr #3 personality ptr @__gxx_personality_v0 {
  %2 = load atomic i8, ptr @_ZGVZ20unicode_utf8_to_byteRKNSt7__cxx1112basic_stringIcSt11char_traitsIcESaIcEEEE3mapB5cxx11 acquire, align 8
  %3 = icmp eq i8 %2, 0
  br i1 %3, label %4, label %9, !prof !33

4:                                                ; preds = %1
  %5 = tail call i32 @__cxa_guard_acquire(ptr nonnull @_ZGVZ20unicode_utf8_to_byteRKNSt7__cxx1112basic_stringIcSt11char_traitsIcESaIcEEEE3mapB5cxx11) #30
  %.not = icmp eq i32 %5, 0
  br i1 %.not, label %9, label %6

6:                                                ; preds = %4
  invoke fastcc void @_ZL24unicode_utf8_to_byte_mapB5cxx11v()
          to label %7 unwind label %14

7:                                                ; preds = %6
  %8 = tail call i32 @__cxa_atexit(ptr nonnull @_ZNSt13unordered_mapINSt7__cxx1112basic_stringIcSt11char_traitsIcESaIcEEEhSt4hashIS5_ESt8equal_toIS5_ESaISt4pairIKS5_hEEED2Ev, ptr nonnull @_ZZ20unicode_utf8_to_byteRKNSt7__cxx1112basic_stringIcSt11char_traitsIcESaIcEEEE3mapB5cxx11, ptr nonnull @__dso_handle) #30
  tail call void @__cxa_guard_release(ptr nonnull @_ZGVZ20unicode_utf8_to_byteRKNSt7__cxx1112basic_stringIcSt11char_traitsIcESaIcEEEE3mapB5cxx11) #30
  br label %9

9:                                                ; preds = %7, %4, %1
  %10 = tail call ptr @_ZNSt10_HashtableINSt7__cxx1112basic_stringIcSt11char_traitsIcESaIcEEESt4pairIKS5_hESaIS8_ENSt8__detail10_Select1stESt8equal_toIS5_ESt4hashIS5_ENSA_18_Mod_range_hashingENSA_20_Default_ranged_hashENSA_20_Prime_rehash_policyENSA_17_Hashtable_traitsILb1ELb0ELb1EEEE4findERS7_(ptr noundef nonnull align 8 dereferenceable(56) @_ZZ20unicode_utf8_to_byteRKNSt7__cxx1112basic_stringIcSt11char_traitsIcESaIcEEEE3mapB5cxx11, ptr noundef nonnull align 8 dereferenceable(32) %0)
  %.not.i.i = icmp eq ptr %10, null
  br i1 %.not.i.i, label %11, label %_ZNSt13unordered_mapINSt7__cxx1112basic_stringIcSt11char_traitsIcESaIcEEEhSt4hashIS5_ESt8equal_toIS5_ESaISt4pairIKS5_hEEE2atERSB_.exit

11:                                               ; preds = %9
  tail call void @_ZSt20__throw_out_of_rangePKc(ptr noundef nonnull @.str.191) #31
  unreachable

_ZNSt13unordered_mapINSt7__cxx1112basic_stringIcSt11char_traitsIcESaIcEEEhSt4hashIS5_ESt8equal_toIS5_ESaISt4pairIKS5_hEEE2atERSB_.exit: ; preds = %9
  %12 = getelementptr inbounds nuw i8, ptr %10, i64 40
  %13 = load i8, ptr %12, align 1, !tbaa !12
  ret i8 %13

14:                                               ; preds = %6
  %15 = landingpad { ptr, i32 }
          cleanup
  tail call void @__cxa_guard_abort(ptr nonnull @_ZGVZ20unicode_utf8_to_byteRKNSt7__cxx1112basic_stringIcSt11char_traitsIcESaIcEEEE3mapB5cxx11) #30
  resume { ptr, i32 } %15
}